target datalayout = "e-m:e-p270:32:32-p271:32:32-p272:64:64-i64:64-i128:128-f80:128-n8:16:32:64-S128"
target triple = "x86_64-pc-linux-gnu"

; Function Attrs: nounwind uwtable
define dso_local void @bit_and_not(ptr noundef %0, ptr noundef %1) #0 {
  %3 = alloca ptr, align 8
  %4 = alloca ptr, align 8
  %5 = alloca i64, align 8
  %6 = alloca i64, align 8
  %7 = alloca i64, align 8
  store ptr %0, ptr %3, align 8
  store ptr %1, ptr %4, align 8
  call void @llvm.lifetime.start.p0(i64 8, ptr %5) #12
  call void @llvm.lifetime.start.p0(i64 8, ptr %6) #12
  br label %8

8:                                                ; preds = %2
  br label %9

9:                                                ; preds = %8
  br label %10

10:                                               ; preds = %9
  br label %11

11:                                               ; preds = %10
  br label %12

12:                                               ; preds = %11
  br label %13

13:                                               ; preds = %12
  %14 = load ptr, ptr %3, align 8
  %15 = getelementptr inbounds i64, ptr %14, i64 1
  %16 = load i64, ptr %15, align 8
  %17 = load ptr, ptr %4, align 8
  %18 = getelementptr inbounds i64, ptr %17, i64 1
  %19 = load i64, ptr %18, align 8
  %20 = icmp slt i64 %16, %19
  br i1 %20, label %21, label %25

21:                                               ; preds = %13
  %22 = load ptr, ptr %3, align 8
  %23 = getelementptr inbounds i64, ptr %22, i64 1
  %24 = load i64, ptr %23, align 8
  br label %29

25:                                               ; preds = %13
  %26 = load ptr, ptr %4, align 8
  %27 = getelementptr inbounds i64, ptr %26, i64 1
  %28 = load i64, ptr %27, align 8
  br label %29

29:                                               ; preds = %25, %21
  %30 = phi i64 [ %24, %21 ], [ %28, %25 ]
  store i64 %30, ptr %6, align 8
  store i64 0, ptr %5, align 8
  br label %31

31:                                               ; preds = %51, %29
  %32 = load i64, ptr %5, align 8
  %33 = add i64 %32, 64
  %34 = load i64, ptr %6, align 8
  %35 = icmp ule i64 %33, %34
  br i1 %35, label %36, label %54

36:                                               ; preds = %31
  %37 = load ptr, ptr %4, align 8
  %38 = load i64, ptr %5, align 8
  %39 = ashr i64 %38, 6
  %40 = add nsw i64 %39, 2
  %41 = getelementptr inbounds i64, ptr %37, i64 %40
  %42 = load i64, ptr %41, align 8
  %43 = xor i64 %42, -1
  %44 = load ptr, ptr %3, align 8
  %45 = load i64, ptr %5, align 8
  %46 = ashr i64 %45, 6
  %47 = add nsw i64 %46, 2
  %48 = getelementptr inbounds i64, ptr %44, i64 %47
  %49 = load i64, ptr %48, align 8
  %50 = and i64 %49, %43
  store i64 %50, ptr %48, align 8
  br label %51

51:                                               ; preds = %36
  %52 = load i64, ptr %5, align 8
  %53 = add i64 %52, 64
  store i64 %53, ptr %5, align 8
  br label %31, !llvm.loop !44

54:                                               ; preds = %31
  %55 = load i64, ptr %5, align 8
  %56 = load i64, ptr %6, align 8
  %57 = icmp slt i64 %55, %56
  br i1 %57, label %58, label %79

58:                                               ; preds = %54
  call void @llvm.lifetime.start.p0(i64 8, ptr %7) #12
  %59 = load i64, ptr %6, align 8
  %60 = and i64 %59, 63
  %61 = shl i64 1, %60
  %62 = sub nsw i64 %61, 1
  store i64 %62, ptr %7, align 8
  %63 = load ptr, ptr %4, align 8
  %64 = load i64, ptr %5, align 8
  %65 = ashr i64 %64, 6
  %66 = add nsw i64 %65, 2
  %67 = getelementptr inbounds i64, ptr %63, i64 %66
  %68 = load i64, ptr %67, align 8
  %69 = load i64, ptr %7, align 8
  %70 = and i64 %68, %69
  %71 = xor i64 %70, -1
  %72 = load ptr, ptr %3, align 8
  %73 = load i64, ptr %5, align 8
  %74 = ashr i64 %73, 6
  %75 = add nsw i64 %74, 2
  %76 = getelementptr inbounds i64, ptr %72, i64 %75
  %77 = load i64, ptr %76, align 8
  %78 = and i64 %77, %71
  store i64 %78, ptr %76, align 8
  call void @llvm.lifetime.end.p0(i64 8, ptr %7) #12
  br label %79

79:                                               ; preds = %58, %54
  call void @llvm.lifetime.end.p0(i64 8, ptr %6) #12
  call void @llvm.lifetime.end.p0(i64 8, ptr %5) #12
  ret void
}