; Function Attrs: nofree norecurse nosync nounwind memory(argmem: readwrite) uwtable
define dso_local void @bit_and_not(ptr noundef captures(none) %0, ptr noundef readonly captures(none) %1) local_unnamed_addr #2 {
  %3 = getelementptr inbounds nuw i8, ptr %0, i64 8
  %4 = load i64, ptr %3, align 8
  %5 = getelementptr inbounds nuw i8, ptr %1, i64 8
  %6 = load i64, ptr %5, align 8
  %. = tail call i64 @llvm.smin.i64(i64 %4, i64 %6)
  %.not23 = icmp ult i64 %., 64
  br i1 %.not23, label %._crit_edge, label %.lr.ph

.lr.ph:                                           ; preds = %2, %.lr.ph
  %7 = phi i64 [ %16, %.lr.ph ], [ 64, %2 ]
  %.024 = phi i64 [ %7, %.lr.ph ], [ 0, %2 ]
  %8 = ashr exact i64 %.024, 6
  %9 = add nsw i64 %8, 2
  %10 = getelementptr inbounds i64, ptr %1, i64 %9
  %11 = load i64, ptr %10, align 8
  %12 = xor i64 %11, -1
  %13 = getelementptr inbounds i64, ptr %0, i64 %9
  %14 = load i64, ptr %13, align 8
  %15 = and i64 %14, %12
  store i64 %15, ptr %13, align 8
  %16 = add i64 %7, 64
  %.not = icmp ugt i64 %16, %.
  br i1 %.not, label %._crit_edge, label %.lr.ph, !llvm.loop !45

._crit_edge:                                      ; preds = %.lr.ph, %2
  %.0.lcssa = phi i64 [ 0, %2 ], [ %7, %.lr.ph ]
  %17 = icmp slt i64 %.0.lcssa, %.
  br i1 %17, label %18, label %28

18:                                               ; preds = %._crit_edge
  %19 = and i64 %., 63
  %notmask = shl nsw i64 -1, %19
  %20 = ashr exact i64 %.0.lcssa, 6
  %21 = add nsw i64 %20, 2
  %22 = getelementptr inbounds i64, ptr %1, i64 %21
  %23 = load i64, ptr %22, align 8
  %.not22 = xor i64 %23, -1
  %24 = or i64 %notmask, %.not22
  %25 = getelementptr inbounds i64, ptr %0, i64 %21
  %26 = load i64, ptr %25, align 8
  %27 = and i64 %26, %24
  store i64 %27, ptr %25, align 8
  br label %28

28:                                               ; preds = %18, %._crit_edge
  ret void
}